; Function Attrs: mustprogress nofree norecurse nosync nounwind willreturn memory(argmem: read) uwtable
define noundef range(i32 0, 256) i32 @_ZN5nblib19findNumEnergyGroupsEN3gmx8ArrayRefIiEE(ptr readonly %0, ptr readnone %1) local_unnamed_addr #0 {
  %3 = icmp eq ptr %0, %1
  %4 = getelementptr inbounds nuw i8, ptr %0, i64 4
  %.not10.i.i = icmp eq ptr %4, %1
  %or.cond.i.i = select i1 %3, i1 true, i1 %.not10.i.i
  br i1 %or.cond.i.i, label %"_ZSt11max_elementIN3gmx12ArrayRefIterIiEEZN5nblib19findNumEnergyGroupsENS0_8ArrayRefIiEEE3$_0ET_S7_S7_T0_.exit", label %.lr.ph.preheader.i.i

.lr.ph.preheader.i.i:                             ; preds = %2
  %.pre.i.i = load i32, ptr %0, align 4, !tbaa !4
  br label %.lr.ph.i.i

.lr.ph.i.i:                                       ; preds = %.lr.ph.i.i, %.lr.ph.preheader.i.i
  %5 = phi i32 [ %11, %.lr.ph.i.i ], [ %.pre.i.i, %.lr.ph.preheader.i.i ]
  %6 = phi ptr [ %12, %.lr.ph.i.i ], [ %4, %.lr.ph.preheader.i.i ]
  %.sroa.07.111.i.i = phi ptr [ %spec.select.i.i, %.lr.ph.i.i ], [ %0, %.lr.ph.preheader.i.i ]
  %7 = load i32, ptr %6, align 4, !tbaa !4
  %8 = and i32 %5, 255
  %9 = and i32 %7, 255
  %10 = icmp samesign ult i32 %8, %9
  %11 = select i1 %10, i32 %7, i32 %5
  %spec.select.i.i = select i1 %10, ptr %6, ptr %.sroa.07.111.i.i
  %12 = getelementptr inbounds nuw i8, ptr %6, i64 4
  %.not.i.i = icmp eq ptr %12, %1
  br i1 %.not.i.i, label %"_ZSt11max_elementIN3gmx12ArrayRefIterIiEEZN5nblib19findNumEnergyGroupsENS0_8ArrayRefIiEEE3$_0ET_S7_S7_T0_.exit", label %.lr.ph.i.i, !llvm.loop !8

"_ZSt11max_elementIN3gmx12ArrayRefIterIiEEZN5nblib19findNumEnergyGroupsENS0_8ArrayRefIiEEE3$_0ET_S7_S7_T0_.exit": ; preds = %.lr.ph.i.i, %2
  %.sroa.07.0.i.i = phi ptr [ %0, %2 ], [ %spec.select.i.i, %.lr.ph.i.i ]
  %13 = load i32, ptr %.sroa.07.0.i.i, align 4, !tbaa !4
  %14 = add nsw i32 %13, 1
  %15 = and i32 %14, 255
  ret i32 %15
}